Certificate:
    Data:
        Version: 3 (0x2)
        Serial Number: 2 (0x2)
    Signature Algorithm: sha1WithRSAEncryption
        Issuer: C=BA, ST=RS, L=Banja Luka, O=Elektrotehnicki fakultet, OU=CA_MilanMarkovic, CN=Milan/emailAddress=milan@gmail.com
        Validity
            Not Before: Feb  8 23:59:02 2020 GMT
            Not After : Feb  7 23:59:02 2021 GMT
        Subject: C=BA, ST=RS, O=Elektrotehnicki fakultet, OU=CA_MilanMarkovic, CN=user2/emailAddress=user2@gmail.com
        Subject Public Key Info:
            Public Key Algorithm: rsaEncryption
                Public-Key: (2048 bit)
                Modulus:
                    00:9b:c9:5b:e5:ab:f0:f4:fe:02:53:ba:d0:56:64:
                    e0:93:47:94:e7:06:9e:25:34:c3:55:b5:a7:d5:f5:
                    f1:bb:86:30:0b:40:0b:de:f9:35:4c:84:bf:3b:5a:
                    98:b3:30:fb:b0:9f:48:3b:61:91:53:00:2a:a0:aa:
                    e4:b2:33:e8:7a:6d:e2:96:3d:48:12:5b:8e:d6:75:
                    a0:71:3d:91:ec:cc:ce:d6:e7:f2:d2:ca:83:70:91:
                    2e:48:b1:34:0c:c2:3d:74:e1:ce:84:fa:b2:84:4d:
                    34:55:d1:15:37:0f:c1:cb:63:d1:78:bd:ac:8d:01:
                    c9:95:4c:2d:3e:8c:2f:8f:4f:e1:d6:24:70:1b:94:
                    c5:c6:a5:55:14:e6:6c:b3:6b:b9:38:1a:2e:42:d3:
                    b4:7b:b3:82:75:29:62:c1:09:cb:c9:a5:00:43:ee:
                    a8:46:c5:6d:6f:65:15:4d:05:d4:a6:ce:94:09:95:
                    0d:4e:33:7b:9b:19:cf:d8:75:9a:ae:fa:80:54:20:
                    11:9b:df:59:85:5f:3e:1c:22:aa:90:28:63:75:de:
                    bb:a2:67:71:d6:b5:b1:2f:6f:f9:a2:04:a6:a1:80:
                    27:b3:90:45:39:6e:53:81:73:07:51:e2:f1:36:52:
                    11:57:45:83:46:0b:84:12:dc:cf:6a:a1:fc:45:ab:
                    c3:8f
                Exponent: 65537 (0x10001)
        X509v3 extensions:
            X509v3 Basic Constraints: 
                CA:FALSE
            X509v3 Extended Key Usage: 
                TLS Web Client Authentication
            Netscape Comment: 
                OpenSSL Generated Certificate
            X509v3 Subject Key Identifier: 
                A9:60:60:F7:74:68:FA:C6:99:DB:9E:02:27:8E:AF:EC:8B:77:21:B1
            X509v3 Authority Key Identifier: 
                keyid:0B:58:44:83:33:10:CD:C5:00:FB:8E:5E:76:63:9E:00:D4:E6:4B:A5

            X509v3 CRL Distribution Points: 

                Full Name:
                  URI:http://192.168.21.89/rootcrl.pem

    Signature Algorithm: sha1WithRSAEncryption
         79:85:44:63:24:6e:12:ca:ab:ca:29:5e:50:af:a9:38:09:6e:
         97:01:4e:71:bd:4b:ad:2e:15:98:f7:33:a9:7a:f7:ba:ca:2f:
         1d:e8:07:9a:f8:7f:d0:91:22:93:5f:d7:e5:80:6d:0d:77:fd:
         d5:a8:87:3c:7e:c5:77:fd:54:00:2d:ef:ee:8b:ed:47:a2:09:
         9e:a1:f1:c4:92:09:17:fb:fd:44:a0:c1:5d:22:64:de:c3:21:
         b6:79:67:3f:58:e3:c8:9c:48:e5:bb:57:b6:91:ad:46:c5:55:
         18:8a:ed:f6:61:2d:68:06:c5:17:2f:8f:b8:73:7a:ba:07:45:
         f0:d2:27:b6:08:2c:1a:75:2c:05:a4:13:c6:60:85:67:f7:1c:
         1a:f2:ad:b7:c4:17:29:d2:78:4f:34:d1:91:9b:f4:8c:bd:e7:
         3d:ea:4c:6e:87:27:a3:67:d8:9e:da:85:41:55:13:e1:dd:c1:
         1f:0f:c5:9e:63:f7:fc:7e:d2:00:b4:08:c8:1f:93:82:a9:ab:
         2f:c9:48:89:b8:a4:19:e4:c9:43:36:c7:2e:d8:db:c8:8f:43:
         c3:25:31:48:84:51:74:6d:84:2b:a0:3a:0e:3d:3a:6a:14:8a:
         91:70:8e:e2:3f:71:ca:86:8b:39:d4:25:26:a1:fb:d0:79:d4:
         09:3b:6d:19:b3:59:af:8b:17:d6:ca:f2:eb:50:97:53:49:97:
         93:b9:e4:37:90:cc:43:ba:9c:95:66:66:ec:ac:ff:33:a3:85:
         38:5c:6a:3d:1d:b3:0d:d6:98:35:3c:0f:4e:5d:82:69:ed:ed:
         05:00:47:66:28:15:a0:a3:62:78:8c:91:73:44:85:8e:cb:af:
         31:0f:2a:a2:ee:cb:6c:24:b7:0b:75:01:a3:e1:d9:d4:3f:11:
         35:b7:2c:7b:d5:d9:20:20:04:b9:28:10:e6:77:b6:23:d1:1a:
         af:be:51:83:99:c0:fa:b9:d6:62:7d:57:1e:75:94:fe:1b:53:
         a0:42:7f:a9:20:c7:68:6c:a8:ab:c6:06:fd:ed:7d:15:61:5a:
         fe:f6:58:07:e0:f0:d2:d0:72:bd:0a:54:e7:ba:92:e9:98:f5:
         9f:13:11:7f:4a:04:c4:1f:db:b1:c5:a2:bd:72:21:cd:b2:f6:
         05:dd:94:c3:1d:d6:0f:de:4d:bc:3d:bb:2d:3e:01:85:57:54:
         74:fa:0d:d3:3e:bd:ce:1c:41:90:3b:2d:30:53:c4:6a:d2:c0:
         e4:b1:a3:54:50:52:58:c7:2c:84:a3:36:bc:77:2c:d0:0f:90:
         aa:66:9e:59:aa:fd:81:40:83:3f:9c:8c:89:75:99:b1:03:a6:
         65:f5:15:3e:ef:8e:43:18
-----BEGIN CERTIFICATE-----
MIIFZzCCA0+gAwIBAgIBAjANBgkqhkiG9w0BAQUFADCBnTELMAkGA1UEBhMCQkEx
CzAJBgNVBAgTAlJTMRMwEQYDVQQHEwpCYW5qYSBMdWthMSEwHwYDVQQKExhFbGVr
dHJvdGVobmlja2kgZmFrdWx0ZXQxGTAXBgNVBAsUEENBX01pbGFuTWFya292aWMx
DjAMBgNVBAMTBU1pbGFuMR4wHAYJKoZIhvcNAQkBFg9taWxhbkBnbWFpbC5jb20w
HhcNMjAwMjA4MjM1OTAyWhcNMjEwMjA3MjM1OTAyWjCBiDELMAkGA1UEBhMCQkEx
CzAJBgNVBAgTAlJTMSEwHwYDVQQKExhFbGVrdHJvdGVobmlja2kgZmFrdWx0ZXQx
GTAXBgNVBAsUEENBX01pbGFuTWFya292aWMxDjAMBgNVBAMTBXVzZXIyMR4wHAYJ
KoZIhvcNAQkBFg91c2VyMkBnbWFpbC5jb20wggEiMA0GCSqGSIb3DQEBAQUAA4IB
DwAwggEKAoIBAQCbyVvlq/D0/gJTutBWZOCTR5TnBp4lNMNVtafV9fG7hjALQAve
+TVMhL87WpizMPuwn0g7YZFTACqgquSyM+h6beKWPUgSW47WdaBxPZHszM7W5/LS
yoNwkS5IsTQMwj104c6E+rKETTRV0RU3D8HLY9F4vayNAcmVTC0+jC+PT+HWJHAb
lMXGpVUU5myza7k4Gi5C07R7s4J1KWLBCcvJpQBD7qhGxW1vZRVNBdSmzpQJlQ1O
M3ubGc/YdZqu+oBUIBGb31mFXz4cIqqQKGN13ruiZ3HWtbEvb/miBKahgCezkEU5
blOBcwdR4vE2UhFXRYNGC4QS3M9qofxFq8OPAgMBAAGjgcQwgcEwCQYDVR0TBAIw
ADATBgNVHSUEDDAKBggrBgEFBQcDAjAsBglghkgBhvhCAQ0EHxYdT3BlblNTTCBH
ZW5lcmF0ZWQgQ2VydGlmaWNhdGUwHQYDVR0OBBYEFKlgYPd0aPrGmdueAieOr+yL
dyGxMB8GA1UdIwQYMBaAFAtYRIMzEM3FAPuOXnZjngDU5kulMDEGA1UdHwQqMCgw
JqAkoCKGIGh0dHA6Ly8xOTIuMTY4LjIxLjg5L3Jvb3RjcmwucGVtMA0GCSqGSIb3
DQEBBQUAA4ICAQB5hURjJG4SyqvKKV5Qr6k4CW6XAU5xvUutLhWY9zOpeve6yi8d
6Aea+H/QkSKTX9flgG0Nd/3VqIc8fsV3/VQALe/ui+1HogmeofHEkgkX+/1EoMFd
ImTewyG2eWc/WOPInEjlu1e2ka1GxVUYiu32YS1oBsUXL4+4c3q6B0Xw0ie2CCwa
dSwFpBPGYIVn9xwa8q23xBcp0nhPNNGRm/SMvec96kxuhyejZ9ie2oVBVRPh3cEf
D8WeY/f8ftIAtAjIH5OCqasvyUiJuKQZ5MlDNscu2NvIj0PDJTFIhFF0bYQroDoO
PTpqFIqRcI7iP3HKhos51CUmofvQedQJO20Zs1mvixfWyvLrUJdTSZeTueQ3kMxD
upyVZmbsrP8zo4U4XGo9HbMN1pg1PA9OXYJp7e0FAEdmKBWgo2J4jJFzRIWOy68x
Dyqi7stsJLcLdQGj4dnUPxE1tyx71dkgIAS5KBDmd7Yj0RqvvlGDmcD6udZifVce
dZT+G1OgQn+pIMdobKirxgb97X0VYVr+9lgH4PDS0HK9ClTnupLpmPWfExF/SgTE
H9uxxaK9ciHNsvYF3ZTDHdYP3k28PbstPgGFV1R0+g3TPr3OHEGQOy0wU8Rq0sDk
saNUUFJYxyyEoza8dyzQD5CqZp5Zqv2BQIM/nIyJdZmxA6Zl9RU+745DGA==
-----END CERTIFICATE-----
