Certificate:
    Data:
        Version: 3 (0x2)
        Serial Number: 1 (0x1)
    Signature Algorithm: sha1WithRSAEncryption
        Issuer: C=BA, ST=RS, L=Banja Luka, O=Elektrotehnicki fakultet, OU=CA_MilanMarkovic, CN=Milan/emailAddress=milan@gmail.com
        Validity
            Not Before: Feb  8 23:58:47 2020 GMT
            Not After : Feb  7 23:58:47 2021 GMT
        Subject: C=BA, ST=RS, O=Elektrotehnicki fakultet, OU=CA_MilanMarkovic, CN=user1/emailAddress=user1@gmail.com
        Subject Public Key Info:
            Public Key Algorithm: rsaEncryption
                Public-Key: (2048 bit)
                Modulus:
                    00:cc:a2:fb:c8:1b:4f:d3:4c:75:3d:9c:02:b8:82:
                    b6:5d:a9:bd:d3:bf:2f:f2:81:4c:9b:7a:d3:86:c5:
                    d4:a7:e8:3a:ce:c3:30:b3:1d:86:43:0e:04:30:3a:
                    34:73:bf:7a:b3:59:6f:9f:5f:d9:57:67:68:1a:15:
                    b4:21:3f:34:37:d9:2c:96:e5:f4:76:5d:fb:e1:e2:
                    ef:80:24:d2:92:fe:c8:31:2c:b2:ce:08:11:68:fc:
                    1d:de:27:9c:08:5c:57:5e:cc:e8:06:7f:8e:74:5f:
                    ce:28:ec:76:07:75:05:2e:1a:9c:0c:37:a8:b5:89:
                    98:92:4e:4f:74:11:cb:94:a6:a2:ff:3d:23:bb:27:
                    85:a3:10:bc:c0:47:31:32:bd:c6:a4:5c:95:28:cf:
                    17:c0:b1:2b:28:4c:b1:5c:4a:06:18:52:5a:39:7a:
                    46:ae:0b:86:eb:13:76:be:16:ca:1b:dc:9c:ad:1c:
                    cc:ae:50:d5:b2:7e:91:80:86:2b:84:19:58:7e:c9:
                    04:fa:c6:26:91:76:4a:58:2a:62:16:cd:d9:d2:01:
                    aa:fd:2f:14:11:5a:64:c3:fd:d6:60:42:6c:61:25:
                    0d:fa:82:4c:7e:83:aa:c8:1d:50:33:33:67:8d:d0:
                    c9:33:de:ad:9f:10:9b:55:5f:35:fa:d5:c0:58:1d:
                    da:0f
                Exponent: 65537 (0x10001)
        X509v3 extensions:
            X509v3 Basic Constraints: 
                CA:FALSE
            X509v3 Extended Key Usage: 
                TLS Web Client Authentication
            Netscape Comment: 
                OpenSSL Generated Certificate
            X509v3 Subject Key Identifier: 
                F3:6D:06:99:BD:AE:C0:8D:C0:4B:9D:5B:46:13:0E:5D:0D:BC:A9:32
            X509v3 Authority Key Identifier: 
                keyid:0B:58:44:83:33:10:CD:C5:00:FB:8E:5E:76:63:9E:00:D4:E6:4B:A5

            X509v3 CRL Distribution Points: 

                Full Name:
                  URI:http://192.168.21.89/rootcrl.pem

    Signature Algorithm: sha1WithRSAEncryption
         4b:b9:22:18:30:db:e1:39:80:68:76:03:bb:74:bb:7c:97:7e:
         76:c8:5f:d5:0f:e3:24:76:0f:d2:c3:ba:3c:75:f4:94:bf:d4:
         d8:76:44:cd:66:1a:5f:dd:49:10:81:72:08:93:03:72:30:94:
         da:4b:51:c6:d4:f8:5a:72:1b:01:e0:1f:00:42:1f:26:8f:f3:
         d4:eb:68:eb:ab:50:46:92:e7:a3:e2:e3:cc:6e:00:b4:50:8e:
         54:88:08:b3:f8:4e:b7:39:bc:61:ec:9e:d2:b7:da:d5:d1:fe:
         8a:19:1b:44:ca:25:cf:f9:15:50:f2:07:a8:fb:95:df:d1:b6:
         d7:e6:58:cd:29:67:7a:92:c4:1b:70:df:b1:85:ed:7a:8b:7a:
         db:f6:d8:ac:f1:7e:1c:b2:57:9d:92:41:9a:c4:6d:f6:0e:41:
         9d:89:27:9b:ad:ff:34:7f:f1:db:09:cd:26:c4:54:79:d6:e1:
         9c:4f:6d:d1:32:fe:73:23:2a:df:75:9a:e7:01:07:f5:aa:93:
         a8:4b:8d:93:dc:17:0e:13:40:b8:4c:ce:b3:89:0a:b7:d6:d0:
         06:ee:58:71:d0:1c:4e:b0:ed:ad:28:89:7e:e0:1b:45:69:39:
         cd:85:01:49:af:bf:16:68:f2:15:42:df:5f:78:6d:ce:5f:d2:
         9f:4b:0e:7e:fd:17:d4:22:7b:30:5f:8e:8e:c4:e5:c3:f5:04:
         3c:7b:7a:96:1e:c3:05:8d:e8:05:6a:e4:8e:dd:37:89:a2:64:
         3b:ed:19:b8:d4:3d:4d:1d:14:c9:08:4e:cc:41:9c:91:81:4c:
         c7:40:06:bf:27:8a:1e:84:f8:56:2e:01:32:5d:62:a8:c1:5d:
         6f:72:82:45:c8:5c:6c:62:f7:3c:7d:cf:73:d9:2a:39:83:01:
         0e:33:87:ba:56:2c:26:47:4d:67:1e:b8:d9:0a:c2:0e:86:3c:
         ed:7b:46:15:bc:22:1b:18:9a:38:5b:98:c8:f0:4e:b7:69:55:
         5f:32:83:79:ed:42:0f:7e:ad:93:71:d5:c1:9e:22:4c:9b:6e:
         13:a1:92:f0:c5:9f:be:24:55:a2:f0:f5:98:79:36:3c:e9:f9:
         8a:f8:84:77:41:da:08:1c:4b:c9:04:22:7d:6f:a5:77:71:fe:
         95:5b:86:37:ff:c1:ea:d6:b8:3a:70:88:e6:16:e0:09:72:e8:
         85:4c:75:f0:11:2d:aa:e3:7d:11:2a:76:6c:12:96:e4:2a:5a:
         72:e4:e5:7f:9a:af:49:c2:02:f1:16:33:c6:d9:94:79:18:b0:
         d0:7c:30:12:e7:69:86:39:11:e7:a9:0f:6a:d9:fb:bc:99:83:
         d8:65:45:af:38:df:b2:24
-----BEGIN CERTIFICATE-----
MIIFZzCCA0+gAwIBAgIBATANBgkqhkiG9w0BAQUFADCBnTELMAkGA1UEBhMCQkEx
CzAJBgNVBAgTAlJTMRMwEQYDVQQHEwpCYW5qYSBMdWthMSEwHwYDVQQKExhFbGVr
dHJvdGVobmlja2kgZmFrdWx0ZXQxGTAXBgNVBAsUEENBX01pbGFuTWFya292aWMx
DjAMBgNVBAMTBU1pbGFuMR4wHAYJKoZIhvcNAQkBFg9taWxhbkBnbWFpbC5jb20w
HhcNMjAwMjA4MjM1ODQ3WhcNMjEwMjA3MjM1ODQ3WjCBiDELMAkGA1UEBhMCQkEx
CzAJBgNVBAgTAlJTMSEwHwYDVQQKExhFbGVrdHJvdGVobmlja2kgZmFrdWx0ZXQx
GTAXBgNVBAsUEENBX01pbGFuTWFya292aWMxDjAMBgNVBAMTBXVzZXIxMR4wHAYJ
KoZIhvcNAQkBFg91c2VyMUBnbWFpbC5jb20wggEiMA0GCSqGSIb3DQEBAQUAA4IB
DwAwggEKAoIBAQDMovvIG0/TTHU9nAK4grZdqb3Tvy/ygUybetOGxdSn6DrOwzCz
HYZDDgQwOjRzv3qzWW+fX9lXZ2gaFbQhPzQ32SyW5fR2Xfvh4u+AJNKS/sgxLLLO
CBFo/B3eJ5wIXFdezOgGf450X84o7HYHdQUuGpwMN6i1iZiSTk90EcuUpqL/PSO7
J4WjELzARzEyvcakXJUozxfAsSsoTLFcSgYYUlo5ekauC4brE3a+Fsob3JytHMyu
UNWyfpGAhiuEGVh+yQT6xiaRdkpYKmIWzdnSAar9LxQRWmTD/dZgQmxhJQ36gkx+
g6rIHVAzM2eN0Mkz3q2fEJtVXzX61cBYHdoPAgMBAAGjgcQwgcEwCQYDVR0TBAIw
ADATBgNVHSUEDDAKBggrBgEFBQcDAjAsBglghkgBhvhCAQ0EHxYdT3BlblNTTCBH
ZW5lcmF0ZWQgQ2VydGlmaWNhdGUwHQYDVR0OBBYEFPNtBpm9rsCNwEudW0YTDl0N
vKkyMB8GA1UdIwQYMBaAFAtYRIMzEM3FAPuOXnZjngDU5kulMDEGA1UdHwQqMCgw
JqAkoCKGIGh0dHA6Ly8xOTIuMTY4LjIxLjg5L3Jvb3RjcmwucGVtMA0GCSqGSIb3
DQEBBQUAA4ICAQBLuSIYMNvhOYBodgO7dLt8l352yF/VD+Mkdg/Sw7o8dfSUv9TY
dkTNZhpf3UkQgXIIkwNyMJTaS1HG1PhachsB4B8AQh8mj/PU62jrq1BGkuej4uPM
bgC0UI5UiAiz+E63Obxh7J7St9rV0f6KGRtEyiXP+RVQ8geo+5Xf0bbX5ljNKWd6
ksQbcN+xhe16i3rb9tis8X4csledkkGaxG32DkGdiSebrf80f/HbCc0mxFR51uGc
T23RMv5zIyrfdZrnAQf1qpOoS42T3BcOE0C4TM6ziQq31tAG7lhx0BxOsO2tKIl+
4BtFaTnNhQFJr78WaPIVQt9feG3OX9KfSw5+/RfUInswX46OxOXD9QQ8e3qWHsMF
jegFauSO3TeJomQ77Rm41D1NHRTJCE7MQZyRgUzHQAa/J4oehPhWLgEyXWKowV1v
coJFyFxsYvc8fc9z2So5gwEOM4e6ViwmR01nHrjZCsIOhjzte0YVvCIbGJo4W5jI
8E63aVVfMoN57UIPfq2TcdXBniJMm24ToZLwxZ++JFWi8PWYeTY86fmK+IR3QdoI
HEvJBCJ9b6V3cf6VW4Y3/8Hq1rg6cIjmFuAJcuiFTHXwES2q430RKnZsEpbkKlpy
5OV/mq9JwgLxFjPG2ZR5GLDQfDAS52mGORHnqQ9q2fu8mYPYZUWvON+yJA==
-----END CERTIFICATE-----
