Certificate:
    Data:
        Version: 3 (0x2)
        Serial Number: 3 (0x3)
    Signature Algorithm: sha1WithRSAEncryption
        Issuer: C=BA, ST=RS, L=Banja Luka, O=Elektrotehnicki fakultet, OU=CA_MilanMarkovic, CN=Milan/emailAddress=milan@gmail.com
        Validity
            Not Before: Feb  9 00:00:31 2020 GMT
            Not After : Feb  8 00:00:31 2021 GMT
        Subject: C=BA, ST=RS, O=Elektrotehnicki fakultet, OU=CA_MilanMarkovic, CN=user3/emailAddress=user3@gmail.com
        Subject Public Key Info:
            Public Key Algorithm: rsaEncryption
                Public-Key: (2048 bit)
                Modulus:
                    00:d1:a7:cf:c2:e8:ca:f7:51:97:a6:7d:13:96:a7:
                    ca:4d:95:9a:d6:34:d9:df:39:62:46:a7:71:83:be:
                    33:89:3a:53:5c:9e:6c:62:e7:54:81:47:43:25:5b:
                    5e:4c:4f:0a:bd:c2:fa:4f:c2:1b:6f:94:2d:53:8a:
                    43:8b:5b:26:69:1e:0a:f8:2c:ad:63:ff:2d:76:08:
                    f3:1b:e0:1d:7f:f1:75:a8:bf:51:60:02:22:32:1b:
                    86:8b:60:99:d6:40:dd:ad:00:44:e2:43:f7:59:c6:
                    98:be:3b:c6:40:42:b9:28:e3:76:ff:a5:41:1f:5c:
                    18:9d:ac:2c:da:bc:af:5c:92:7a:8c:fd:1d:36:e0:
                    f1:c7:ff:75:1e:e2:60:0c:78:ae:c3:df:04:cd:26:
                    12:37:ec:3b:51:67:0a:cb:d2:09:43:11:5d:50:e3:
                    e2:36:14:97:52:c7:cb:b2:c1:a5:2a:b5:9c:1d:53:
                    94:41:ea:da:86:85:f6:d9:77:bf:fc:63:03:f0:09:
                    4a:61:21:61:18:06:86:99:4d:17:2f:a5:64:2c:42:
                    b4:ff:ce:48:4f:69:1a:1e:86:97:b8:33:91:9a:9c:
                    7c:0c:23:ea:39:72:08:1c:ce:b3:5e:50:ac:ff:3e:
                    c0:37:02:47:19:b3:ce:d2:5c:ef:f2:30:9f:e9:c5:
                    39:93
                Exponent: 65537 (0x10001)
        X509v3 extensions:
            X509v3 Basic Constraints: 
                CA:FALSE
            X509v3 Extended Key Usage: 
                TLS Web Client Authentication
            Netscape Comment: 
                OpenSSL Generated Certificate
            X509v3 Subject Key Identifier: 
                1B:5B:ED:0B:3D:33:62:C6:BC:52:73:DA:D5:1F:FA:7F:79:F3:C4:11
            X509v3 Authority Key Identifier: 
                keyid:0B:58:44:83:33:10:CD:C5:00:FB:8E:5E:76:63:9E:00:D4:E6:4B:A5

            X509v3 CRL Distribution Points: 

                Full Name:
                  URI:http://192.168.21.89/rootcrl.pem

    Signature Algorithm: sha1WithRSAEncryption
         85:ff:07:e0:a5:b7:0e:2b:d7:d6:12:d9:74:c3:27:47:ed:67:
         fc:94:25:f3:c7:c2:4a:4c:2b:a7:07:cc:ee:64:66:7c:68:2f:
         62:10:0c:a4:3b:e8:76:24:13:4f:83:8f:d2:bb:2b:67:9c:31:
         2a:36:5a:c9:5a:59:af:c0:ef:49:c0:69:1e:2c:fe:25:fd:56:
         b7:0f:d2:29:fe:a3:fb:52:02:b8:39:ba:b7:6b:50:f7:25:a0:
         4f:47:e9:00:08:0c:e2:99:9d:4c:d7:b6:2d:20:dd:50:91:94:
         fb:a2:f0:a6:09:14:6d:98:bd:cb:58:3e:7d:68:1c:fc:62:6a:
         32:e3:f9:28:ea:e8:5b:99:93:d9:60:b4:dd:27:bb:df:72:90:
         a8:62:a6:54:32:33:9e:87:2d:51:4c:f7:d8:19:3d:12:f0:bc:
         ba:de:ff:aa:42:92:4d:8b:80:5c:ec:08:a4:5d:6a:96:4d:0e:
         af:f4:19:f9:c3:cd:70:bb:c3:85:93:c8:ba:12:ab:e1:a5:ba:
         8b:d1:af:d1:ad:6f:d7:b3:4e:9a:d4:17:c1:fe:7b:71:40:37:
         45:ff:3e:ca:60:53:a8:1c:64:d5:b8:7d:e3:bd:e6:74:2d:a4:
         65:0c:8b:c6:ba:b7:02:32:82:90:35:ca:41:ad:a0:76:9f:a5:
         cd:be:90:91:39:d4:91:91:29:ae:5d:01:0a:90:8f:57:fa:5e:
         5b:9c:07:45:36:78:f0:7c:cd:6c:54:55:5f:5a:1c:0e:7b:57:
         88:88:d1:d0:05:e9:0d:af:2c:73:86:59:98:d1:73:78:7e:75:
         32:ef:02:b7:ff:3c:54:f0:ca:d0:41:72:e1:07:35:8e:72:8d:
         09:c7:14:14:91:23:a5:02:45:b5:63:28:48:de:39:14:db:54:
         24:e6:e4:00:bd:78:e3:07:4e:eb:fd:33:8a:18:dd:6e:54:12:
         bf:6e:34:a5:7e:d1:39:34:ea:09:c6:61:e7:93:d1:a4:35:ce:
         b2:fd:0d:07:f9:b4:52:de:0b:41:5b:fe:df:b8:7f:3b:99:74:
         af:8b:43:2b:02:86:69:e5:15:ba:a6:a5:d2:9a:95:fb:1e:1c:
         66:2d:0c:4a:ab:55:2d:ef:c4:38:34:a8:50:b8:3d:53:e4:35:
         26:c6:e0:04:cc:b1:f1:1c:96:65:3f:17:03:37:f6:99:e5:32:
         cc:b1:da:e1:8d:9c:6d:c1:e4:4d:e0:8a:2c:5a:a9:dc:dc:d9:
         8b:be:03:b1:42:ce:1e:a2:2d:00:82:37:b3:db:18:7a:6d:15:
         cc:6b:0c:d3:d9:fb:32:59:02:cc:64:eb:76:a3:3c:ff:ec:47:
         47:d1:db:9c:93:f0:33:aa
-----BEGIN CERTIFICATE-----
MIIFZzCCA0+gAwIBAgIBAzANBgkqhkiG9w0BAQUFADCBnTELMAkGA1UEBhMCQkEx
CzAJBgNVBAgTAlJTMRMwEQYDVQQHEwpCYW5qYSBMdWthMSEwHwYDVQQKExhFbGVr
dHJvdGVobmlja2kgZmFrdWx0ZXQxGTAXBgNVBAsUEENBX01pbGFuTWFya292aWMx
DjAMBgNVBAMTBU1pbGFuMR4wHAYJKoZIhvcNAQkBFg9taWxhbkBnbWFpbC5jb20w
HhcNMjAwMjA5MDAwMDMxWhcNMjEwMjA4MDAwMDMxWjCBiDELMAkGA1UEBhMCQkEx
CzAJBgNVBAgTAlJTMSEwHwYDVQQKExhFbGVrdHJvdGVobmlja2kgZmFrdWx0ZXQx
GTAXBgNVBAsUEENBX01pbGFuTWFya292aWMxDjAMBgNVBAMTBXVzZXIzMR4wHAYJ
KoZIhvcNAQkBFg91c2VyM0BnbWFpbC5jb20wggEiMA0GCSqGSIb3DQEBAQUAA4IB
DwAwggEKAoIBAQDRp8/C6Mr3UZemfROWp8pNlZrWNNnfOWJGp3GDvjOJOlNcnmxi
51SBR0MlW15MTwq9wvpPwhtvlC1TikOLWyZpHgr4LK1j/y12CPMb4B1/8XWov1Fg
AiIyG4aLYJnWQN2tAETiQ/dZxpi+O8ZAQrko43b/pUEfXBidrCzavK9cknqM/R02
4PHH/3Ue4mAMeK7D3wTNJhI37DtRZwrL0glDEV1Q4+I2FJdSx8uywaUqtZwdU5RB
6tqGhfbZd7/8YwPwCUphIWEYBoaZTRcvpWQsQrT/zkhPaRoehpe4M5GanHwMI+o5
cggczrNeUKz/PsA3AkcZs87SXO/yMJ/pxTmTAgMBAAGjgcQwgcEwCQYDVR0TBAIw
ADATBgNVHSUEDDAKBggrBgEFBQcDAjAsBglghkgBhvhCAQ0EHxYdT3BlblNTTCBH
ZW5lcmF0ZWQgQ2VydGlmaWNhdGUwHQYDVR0OBBYEFBtb7Qs9M2LGvFJz2tUf+n95
88QRMB8GA1UdIwQYMBaAFAtYRIMzEM3FAPuOXnZjngDU5kulMDEGA1UdHwQqMCgw
JqAkoCKGIGh0dHA6Ly8xOTIuMTY4LjIxLjg5L3Jvb3RjcmwucGVtMA0GCSqGSIb3
DQEBBQUAA4ICAQCF/wfgpbcOK9fWEtl0wydH7Wf8lCXzx8JKTCunB8zuZGZ8aC9i
EAykO+h2JBNPg4/SuytnnDEqNlrJWlmvwO9JwGkeLP4l/Va3D9Ip/qP7UgK4Obq3
a1D3JaBPR+kACAzimZ1M17YtIN1QkZT7ovCmCRRtmL3LWD59aBz8Ymoy4/ko6uhb
mZPZYLTdJ7vfcpCoYqZUMjOehy1RTPfYGT0S8Ly63v+qQpJNi4Bc7AikXWqWTQ6v
9Bn5w81wu8OFk8i6EqvhpbqL0a/RrW/Xs06a1BfB/ntxQDdF/z7KYFOoHGTVuH3j
veZ0LaRlDIvGurcCMoKQNcpBraB2n6XNvpCROdSRkSmuXQEKkI9X+l5bnAdFNnjw
fM1sVFVfWhwOe1eIiNHQBekNryxzhlmY0XN4fnUy7wK3/zxU8MrQQXLhBzWOco0J
xxQUkSOlAkW1YyhI3jkU21Qk5uQAvXjjB07r/TOKGN1uVBK/bjSlftE5NOoJxmHn
k9GkNc6y/Q0H+bRS3gtBW/7fuH87mXSvi0MrAoZp5RW6pqXSmpX7HhxmLQxKq1Ut
78Q4NKhQuD1T5DUmxuAEzLHxHJZlPxcDN/aZ5TLMsdrhjZxtweRN4IosWqnc3NmL
vgOxQs4eoi0Agjez2xh6bRXMawzT2fsyWQLMZOt2ozz/7EdH0duck/Azqg==
-----END CERTIFICATE-----
